; Function Attrs: mustprogress uwtable
define internal void @_ZN9grpc_core12_GLOBAL__N_114FailHandshaker11DoHandshakeEPNS_14HandshakerArgsEN4absl12lts_2024072212AnyInvocableIFvNS5_6StatusEEEE(ptr noundef nonnull readonly align 8 captures(none) dereferenceable(24) %0, ptr noundef %1, ptr noundef %2) unnamed_addr #3 align 2 personality ptr @__gxx_personality_v0 {
  %4 = alloca %"class.absl::lts_20240722::AnyInvocable.92", align 16
  %5 = alloca %"class.absl::lts_20240722::Status", align 8
  %6 = getelementptr inbounds nuw i8, ptr %2, i64 16
  %7 = load ptr, ptr %6, align 16, !tbaa !77
  call void %7(i1 noundef zeroext false, ptr noundef nonnull align 16 dereferenceable(32) %2, ptr noundef nonnull align 16 dereferenceable(32) %4) #30
  %8 = load ptr, ptr %6, align 16, !tbaa !77
  %9 = getelementptr inbounds nuw i8, ptr %4, i64 16
  store ptr %8, ptr %9, align 16, !tbaa !77
  %10 = getelementptr inbounds nuw i8, ptr %2, i64 24
  %11 = load ptr, ptr %10, align 8, !tbaa !78
  %12 = getelementptr inbounds nuw i8, ptr %4, i64 24
  store ptr %11, ptr %12, align 8, !tbaa !78
  store ptr @_ZN4absl12lts_2024072222internal_any_invocable12EmptyManagerENS1_14FunctionToCallEPNS1_15TypeErasedStateES4_, ptr %6, align 16, !tbaa !77
  store ptr null, ptr %10, align 8, !tbaa !78
  %13 = getelementptr inbounds nuw i8, ptr %0, i64 16
  %14 = load i64, ptr %13, align 8, !tbaa !3
  store i64 %14, ptr %5, align 8, !tbaa !3
  %15 = and i64 %14, 1
  %.not.i.i = icmp eq i64 %15, 0
  br i1 %.not.i.i, label %16, label %_ZN4absl12lts_202407226StatusC2ERKS1_.exit

16:                                               ; preds = %3
  %17 = inttoptr i64 %14 to ptr
  %18 = atomicrmw add ptr %17, i32 1 monotonic, align 4
  br label %_ZN4absl12lts_202407226StatusC2ERKS1_.exit

_ZN4absl12lts_202407226StatusC2ERKS1_.exit:       ; preds = %16, %3
  invoke void @_ZN9grpc_core10Handshaker21InvokeOnHandshakeDoneEPNS_14HandshakerArgsEN4absl12lts_2024072212AnyInvocableIFvNS4_6StatusEEEES6_(ptr noundef %1, ptr noundef nonnull %4, ptr noundef nonnull %5)
          to label %19 unwind label %28

19:                                               ; preds = %_ZN4absl12lts_202407226StatusC2ERKS1_.exit
  %20 = load i64, ptr %5, align 8, !tbaa !3
  %21 = and i64 %20, 1
  %.not.i.i5 = icmp eq i64 %21, 0
  br i1 %.not.i.i5, label %22, label %_ZN4absl12lts_202407226StatusD2Ev.exit

22:                                               ; preds = %19
  %23 = inttoptr i64 %20 to ptr
  invoke void @_ZNK4absl12lts_2024072215status_internal9StatusRep5UnrefEv(ptr noundef nonnull align 8 dereferenceable(48) %23)
          to label %_ZN4absl12lts_202407226StatusD2Ev.exit unwind label %24

24:                                               ; preds = %22
  %25 = landingpad { ptr, i32 }
          catch ptr null
  %26 = extractvalue { ptr, i32 } %25, 0
  call void @__clang_call_terminate(ptr %26) #33
  unreachable

_ZN4absl12lts_202407226StatusD2Ev.exit:           ; preds = %19, %22
  %27 = load ptr, ptr %9, align 16, !tbaa !77
  call void %27(i1 noundef zeroext true, ptr noundef nonnull align 16 dereferenceable(32) %4, ptr noundef nonnull align 16 dereferenceable(32) %4) #30
  ret void

28:                                               ; preds = %_ZN4absl12lts_202407226StatusC2ERKS1_.exit
  %29 = landingpad { ptr, i32 }
          cleanup
  call void @_ZN4absl12lts_202407226StatusD2Ev(ptr noundef nonnull align 8 dereferenceable(8) %5) #30
  %30 = load ptr, ptr %9, align 16, !tbaa !77
  call void %30(i1 noundef zeroext true, ptr noundef nonnull align 16 dereferenceable(32) %4, ptr noundef nonnull align 16 dereferenceable(32) %4) #30
  resume { ptr, i32 } %29
}